; Function Attrs: mustprogress nofree norecurse nosync nounwind willreturn memory(argmem: readwrite) uwtable
define hidden void @_ZNK3ue211ue2_literal4elemcvNS_9CharReachEEv(ptr dead_on_unwind noalias writable sret(%"class.ue2::CharReach") align 8 captures(none) initializes((0, 32)) %0, ptr noundef nonnull readonly align 1 captures(none) dereferenceable(2) %1) local_unnamed_addr #10 align 2 {
  %3 = getelementptr inbounds nuw i8, ptr %1, i64 1
  %4 = load i8, ptr %3, align 1, !range !12, !noundef !13
  %5 = trunc nuw i8 %4 to i1
  br i1 %5, label %8, label %6

6:                                                ; preds = %2
  %7 = load i8, ptr %1, align 1
  tail call void @llvm.memset.p0.i64(ptr noundef nonnull align 8 dereferenceable(32) %0, i8 0, i64 32, i1 false)
  br label %23

8:                                                ; preds = %2
  tail call void @llvm.memset.p0.i64(ptr noundef nonnull align 8 dereferenceable(32) %0, i8 0, i64 32, i1 false)
  %9 = load i8, ptr %1, align 1
  %10 = add i8 %9, -123
  %11 = icmp ult i8 %10, -26
  %12 = add i8 %9, -32
  %.0.i = select i1 %11, i8 %9, i8 %12
  %13 = zext i8 %.0.i to i64
  %14 = and i64 %13, 63
  %15 = shl nuw i64 1, %14
  %16 = lshr i64 %13, 6
  %17 = getelementptr inbounds nuw [4 x i64], ptr %0, i64 0, i64 %16
  %18 = load i64, ptr %17, align 8
  %19 = or i64 %15, %18
  store i64 %19, ptr %17, align 8
  %20 = add i8 %9, -91
  %21 = icmp ult i8 %20, -26
  %22 = add i8 %9, 32
  %.0.i2 = select i1 %21, i8 %9, i8 %22
  br label %23

23:                                               ; preds = %8, %6
  %.0.i2.sink = phi i8 [ %.0.i2, %8 ], [ %7, %6 ]
  %24 = zext i8 %.0.i2.sink to i64
  %25 = and i64 %24, 63
  %26 = shl nuw i64 1, %25
  %27 = lshr i64 %24, 6
  %28 = getelementptr inbounds nuw [4 x i64], ptr %0, i64 0, i64 %27
  %29 = load i64, ptr %28, align 8
  %30 = or i64 %26, %29
  store i64 %30, ptr %28, align 8
  ret void
}